target datalayout = "e-m:e-p270:32:32-p271:32:32-p272:64:64-i64:64-i128:128-f80:128-n8:16:32:64-S128"
target triple = "x86_64-pc-linux-gnu"

; Function Attrs: nounwind uwtable
define zeroext i8 @Java_sun_awt_X11_XlibWrapper_IsXsunKPBehavior(ptr noundef %0, ptr noundef %1, i64 noundef %2) #0 {
  %4 = alloca i8, align 1
  %5 = alloca ptr, align 8
  %6 = alloca ptr, align 8
  %7 = alloca i64, align 8
  %8 = alloca i32, align 4
  %9 = alloca i64, align 8
  store ptr %0, ptr %5, align 8
  store ptr %1, ptr %6, align 8
  store i64 %2, ptr %7, align 8
  %10 = load i64, ptr %7, align 8
  %11 = inttoptr i64 %10 to ptr
  %12 = call zeroext i8 @XKeysymToKeycode(ptr noundef %11, i64 noundef 65463)
  %13 = zext i8 %12 to i32
  store i32 %13, ptr %8, align 4
  %14 = load i32, ptr %8, align 4
  %15 = icmp ne i32 %14, 0
  br i1 %15, label %17, label %16

16:                                               ; preds = %3
  store i8 0, ptr %4, align 1
  br label %27

17:                                               ; preds = %3
  %18 = load i64, ptr %7, align 8
  %19 = inttoptr i64 %18 to ptr
  %20 = load i32, ptr %8, align 4
  %21 = trunc i32 %20 to i8
  %22 = call i64 @keycodeToKeysym(ptr noundef %19, i8 noundef zeroext %21, i32 noundef 2)
  store i64 %22, ptr %9, align 8
  %23 = load i64, ptr %9, align 8
  %24 = icmp eq i64 %23, 65463
  br i1 %24, label %25, label %26

25:                                               ; preds = %17
  store i8 1, ptr %4, align 1
  br label %27

26:                                               ; preds = %17
  store i8 0, ptr %4, align 1
  br label %27

27:                                               ; preds = %26, %25, %16
  %28 = load i8, ptr %4, align 1
  ret i8 %28
}