; Function Attrs: nounwind uwtable
define zeroext range(i8 0, 2) i8 @Java_sun_awt_X11_XlibWrapper_IsXsunKPBehavior(ptr nocapture noundef readnone %0, ptr nocapture noundef readnone %1, i64 noundef %2) local_unnamed_addr #0 {
  %4 = inttoptr i64 %2 to ptr
  %5 = tail call zeroext i8 @XKeysymToKeycode(ptr noundef %4, i64 noundef 65463) #14
  %.not = icmp eq i8 %5, 0
  br i1 %.not, label %9, label %6

6:                                                ; preds = %3
  %7 = tail call i64 @keycodeToKeysym(ptr noundef %4, i8 noundef zeroext %5, i32 noundef 2) #14
  %8 = icmp eq i64 %7, 65463
  %. = zext i1 %8 to i8
  br label %9

9:                                                ; preds = %6, %3
  %.0 = phi i8 [ 0, %3 ], [ %., %6 ]
  ret i8 %.0
}